; Function Attrs: inlinehint mustprogress optsize uwtable
define internal void @"_ZZL32nanobind_init_test_exception_extRN8nanobind7module_EEN4$_208__invokeERKNSt15__exception_ptr13exception_ptrEPv"(ptr noundef nonnull readonly align 8 captures(none) dereferenceable(8) %0, ptr readnone captures(none) %1) #11 align 2 personality ptr @__gxx_personality_v0 {
  %3 = alloca %"class.std::__exception_ptr::exception_ptr", align 8
  %.val = load ptr, ptr %0, align 8, !tbaa !32
  call void @llvm.lifetime.start.p0(i64 8, ptr nonnull %3)
  store ptr %.val, ptr %3, align 8, !tbaa !32
  %.not.i.i = icmp eq ptr %.val, null
  br i1 %.not.i.i, label %_ZNSt15__exception_ptr13exception_ptrC2ERKS0_.exit.i, label %4

4:                                                ; preds = %2
  call void @_ZNSt15__exception_ptr13exception_ptr9_M_addrefEv(ptr noundef nonnull align 8 dereferenceable(8) %3) #17
  br label %_ZNSt15__exception_ptr13exception_ptrC2ERKS0_.exit.i

_ZNSt15__exception_ptr13exception_ptrC2ERKS0_.exit.i: ; preds = %4, %2
  invoke void @_ZSt17rethrow_exceptionNSt15__exception_ptr13exception_ptrE(ptr noundef nonnull %3) #21
          to label %5 unwind label %6

5:                                                ; preds = %_ZNSt15__exception_ptr13exception_ptrC2ERKS0_.exit.i
  unreachable

6:                                                ; preds = %_ZNSt15__exception_ptr13exception_ptrC2ERKS0_.exit.i
  %7 = landingpad { ptr, i32 }
          cleanup
          catch ptr @_ZTI8MyError2
  %8 = extractvalue { ptr, i32 } %7, 1
  %9 = load ptr, ptr %3, align 8, !tbaa !32
  %.not.i7.i = icmp eq ptr %9, null
  br i1 %.not.i7.i, label %_ZNSt15__exception_ptr13exception_ptrD2Ev.exit.i, label %10

10:                                               ; preds = %6
  call void @_ZNSt15__exception_ptr13exception_ptr10_M_releaseEv(ptr noundef nonnull align 8 dereferenceable(8) %3) #17
  br label %_ZNSt15__exception_ptr13exception_ptrD2Ev.exit.i

_ZNSt15__exception_ptr13exception_ptrD2Ev.exit.i: ; preds = %10, %6
  %11 = call i32 @llvm.eh.typeid.for.p0(ptr nonnull @_ZTI8MyError2) #16
  %12 = icmp eq i32 %8, %11
  br i1 %12, label %13, label %23

13:                                               ; preds = %_ZNSt15__exception_ptr13exception_ptrD2Ev.exit.i
  %14 = extractvalue { ptr, i32 } %7, 0
  %15 = call ptr @__cxa_begin_catch(ptr %14) #16
  %16 = load ptr, ptr @PyExc_IndexError, align 8, !tbaa !23
  %17 = load ptr, ptr %15, align 8, !tbaa !26
  %18 = getelementptr inbounds nuw i8, ptr %17, i64 16
  %19 = load ptr, ptr %18, align 8
  %20 = call noundef ptr %19(ptr noundef nonnull align 8 dereferenceable(8) %15) #17
  invoke void @PyErr_SetString(ptr noundef %16, ptr noundef %20) #15
          to label %"_ZZL32nanobind_init_test_exception_extRN8nanobind7module_EENK4$_20clERKNSt15__exception_ptr13exception_ptrEPv.exit" unwind label %21

21:                                               ; preds = %13
  %22 = landingpad { ptr, i32 }
          cleanup
  invoke void @__cxa_end_catch()
          to label %23 unwind label %24

23:                                               ; preds = %21, %_ZNSt15__exception_ptr13exception_ptrD2Ev.exit.i
  %.merged.i = phi { ptr, i32 } [ %7, %_ZNSt15__exception_ptr13exception_ptrD2Ev.exit.i ], [ %22, %21 ]
  resume { ptr, i32 } %.merged.i

24:                                               ; preds = %21
  %25 = landingpad { ptr, i32 }
          catch ptr null
  %26 = extractvalue { ptr, i32 } %25, 0
  call void @__clang_call_terminate(ptr %26) #18
  unreachable

"_ZZL32nanobind_init_test_exception_extRN8nanobind7module_EENK4$_20clERKNSt15__exception_ptr13exception_ptrEPv.exit": ; preds = %13
  call void @__cxa_end_catch()
  call void @llvm.lifetime.end.p0(i64 8, ptr nonnull %3)
  ret void
}